; Function Attrs: mustprogress sspstrong uwtable
define void @_ZN3tbb6detail2r125thread_request_serializer22set_active_num_workersEi(ptr noundef nonnull align 8 dereferenceable(33) %0, i32 noundef %1) local_unnamed_addr #1 align 2 personality ptr @__gxx_personality_v0 {
  %3 = alloca %"class.tbb::detail::d1::unique_scoped_lock", align 8
  call void @llvm.lifetime.start.p0(i64 8, ptr nonnull %3) #11
  %4 = getelementptr inbounds nuw i8, ptr %0, i64 32
  store ptr null, ptr %3, align 8, !tbaa !27
  call void @_ZN3tbb6detail2d118unique_scoped_lockINS1_5mutexEE7acquireERS3_(ptr noundef nonnull align 8 dereferenceable(8) %3, ptr noundef nonnull align 1 dereferenceable(1) %4)
  %5 = getelementptr inbounds nuw i8, ptr %0, i64 16
  %6 = load i32, ptr %5, align 8, !tbaa !10
  %7 = getelementptr inbounds nuw i8, ptr %0, i64 20
  %8 = load atomic i32, ptr %7 monotonic, align 4
  %..i.i = call noundef i32 @llvm.smin.i32(i32 %8, i32 %1)
  %..i1.i = call noundef i32 @llvm.smin.i32(i32 %8, i32 %6)
  %9 = sub nsw i32 %..i.i, %..i1.i
  %10 = getelementptr inbounds nuw i8, ptr %0, i64 8
  %11 = load ptr, ptr %10, align 8, !tbaa !30
  invoke void @_ZN3tbb6detail2r117thread_dispatcher25adjust_job_count_estimateEi(ptr noundef nonnull align 8 dereferenceable(152) %11, i32 noundef %9)
          to label %12 unwind label %19

12:                                               ; preds = %2
  store i32 %1, ptr %5, align 8, !tbaa !10
  %13 = load ptr, ptr %3, align 8, !tbaa !27
  %.not.i = icmp eq ptr %13, null
  br i1 %.not.i, label %_ZN3tbb6detail2d118unique_scoped_lockINS1_5mutexEED2Ev.exit, label %14

14:                                               ; preds = %12
  %15 = atomicrmw xchg ptr %13, i8 0 seq_cst, align 1
  invoke void @_ZN3tbb6detail2r121notify_by_address_oneEPv(ptr noundef nonnull align 1 dereferenceable(1) %13)
          to label %_ZN3tbb6detail2d118unique_scoped_lockINS1_5mutexEED2Ev.exit unwind label %16

16:                                               ; preds = %14
  %17 = landingpad { ptr, i32 }
          catch ptr null
  %18 = extractvalue { ptr, i32 } %17, 0
  call void @__clang_call_terminate(ptr %18) #14
  unreachable

_ZN3tbb6detail2d118unique_scoped_lockINS1_5mutexEED2Ev.exit: ; preds = %14, %12
  call void @llvm.lifetime.end.p0(i64 8, ptr nonnull %3) #11
  ret void

19:                                               ; preds = %2
  %20 = landingpad { ptr, i32 }
          cleanup
  call void @_ZN3tbb6detail2d118unique_scoped_lockINS1_5mutexEED2Ev(ptr noundef nonnull align 8 dereferenceable(8) %3) #11
  call void @llvm.lifetime.end.p0(i64 8, ptr nonnull %3) #11
  resume { ptr, i32 } %20
}